(dp0
S'twitter'
p1
ccollections
Counter
p2
((dp3
S'zho'
p4
I7
sS'ron'
p5
I2
sS'jpn'
p6
I2140
sS'fas'
p7
I1
sS'tur'
p8
I31
sS'por'
p9
I117
sS'ita'
p10
I5
sS'ara'
p11
I114
sS'pol'
p12
I2
sS'ces'
p13
I2
sS'nld'
p14
I153
sS'rus'
p15
I44
sS'spa'
p16
I173
sS'fra'
p17
I12
sS'bel'
p18
I1
sS'ell'
p19
I12
sS'eng'
p20
I990
sS'swa'
p21
I1
sS'afr'
p22
I16
sS'swe'
p23
I2
sS'deu'
p24
I7
sS'cat'
p25
I3
sS'fil'
p26
I20
sS'heb'
p27
I1
sS'tha'
p28
I47
sS'kor'
p29
I473
sS'msa'
p30
I53
stp31
Rp32
sS'books'
p33
ccollections
defaultdict
p34
(c__builtin__
int
p35
tp36
Rp37
S'roh'
p38
I284
sS'bvr'
p39
I3
sS'sco'
p40
I32
sS'scn'
p41
I2
sS'rom'
p42
I82
sS'ron'
p43
I18464
sS'osx'
p44
I0
sS'bvz'
p45
I1
sS'oss'
p46
I153
sS'mns'
p47
I1
sS'mlp'
p48
I1
sS'mnw'
p49
I0
sS'mnh'
p50
I2
sS'mni'
p51
I1
sS'nwb'
p52
I1
sS'rop'
p53
I7
sS'alt'
p54
I50
sS'mnc'
p55
I2
sS'mnf'
p56
I18
sS'alq'
p57
I4
sS'fod'
p58
I3
sS'mwp'
p59
I1
sS'jrb'
p60
I0
sS'vep'
p61
I5
sS'aji'
p62
I1
sS'wmt'
p63
I2
sS'zmz'
p64
I1
sS'auu'
p65
I1
sS'mwf'
p66
I3
sS'auv'
p67
I1
sS'ven'
p68
I5
sS'lkt'
p69
I1
sS'tkl'
p70
I102
sS'mwl'
p71
I1
sS'mpe'
p72
I1
sS'kca'
p73
I3
sS'mpc'
p74
I0
sS'fas'
p75
I11329
sS'lrl'
p76
I0
sS'fak'
p77
I0
sS'mpu'
p78
I0
sS'fan'
p79
I0
sS'fao'
p80
I415
sS'vls'
p81
I0
sS'faa'
p82
I1
sS'sme'
p83
I173
sS'tri'
p84
I1
sS'dih'
p85
I0
sS'hye'
p86
I2139
sS'gue'
p87
I1
sS'gud'
p88
I2
sS'guj'
p89
I524
sS'cme'
p90
I24
sS'tnr'
p91
I0
sS'eve'
p92
I15
sS'gul'
p93
I1
sS'gur'
p94
I15
sS'gup'
p95
I3
sS'guw'
p96
I0
sS'zdj'
p97
I0
sS'div'
p98
I7
sS'gux'
p99
I0
sS'pbi'
p100
I8
sS'flr'
p101
I11
sS'tel'
p102
I668
sS'tem'
p103
I0
sS'tha'
p104
I1227
sS'ibd'
p105
I1
sS'cni'
p106
I1
sS'nbw'
p107
I1
sS'osa'
p108
I0
sS'nbl'
p109
I3
sS'ibg'
p110
I2
sS'tet'
p111
I3
sS'nbf'
p112
I19
sS'tew'
p113
I0
sS'nen'
p114
I0
sS'nem'
p115
I0
sS'suc'
p116
I5
sS'sub'
p117
I1
sS'bdm'
p118
I3
sS'sun'
p119
I1
sS'sum'
p120
I0
sS'abk'
p121
I115
sS'kus'
p122
I1
sS'kur'
p123
I201
sS'kup'
p124
I1
sS'abq'
p125
I8
sS'kum'
p126
I65
sS'ain'
p127
I0
sS'nez'
p128
I0
sS'lle'
p129
I0
sS'suq'
p130
I7
sS'abx'
p131
I1
sS'new'
p132
I25
sS'bdy'
p133
I0
sS'kua'
p134
I2
sS'sux'
p135
I0
sS'kzr'
p136
I17
sS'med'
p137
I0
sS'ntr'
p138
I8
sS'lee'
p139
I9
sS'lef'
p140
I6
sS'kst'
p141
I1
sS'arg'
p142
I64
sS'ozm'
p143
I17
sS'lem'
p144
I2
sS'fun'
p145
I1
sS'heb'
p146
I10961
sS'let'
p147
I0
sS'ulc'
p148
I0
sS'lez'
p149
I64
sS'hke'
p150
I0
sS'box'
p151
I30
sS'ctu'
p152
I1
sS'ekm'
p153
I2
sS'gla'
p154
I227
sS'drs'
p155
I1
sS'akp'
p156
I1
sS'gld'
p157
I2
sS'gle'
p158
I167
sS'bov'
p159
I1
sS'glg'
p160
I2371
sS'akk'
p161
I0
sS'mmn'
p162
I3
sS'sjo'
p163
I1
sS'akl'
p164
I3
sS'akc'
p165
I1
sS'que'
p166
I25
sS'aka'
p167
I2
sS'bod'
p168
I344
sS'ake'
p169
I14
sS'ork'
p170
I1
sS'apz'
p171
I1
sS'wic'
p172
I0
sS'wib'
p173
I15
sS'jra'
p174
I0
sS'vie'
p175
I786
sS'apr'
p176
I1
sS'ipk'
p177
I2
sS'wim'
p178
I6
sS'apw'
p179
I0
sS'uzb'
p180
I2757
sS'mkw'
p181
I5
sS'wiu'
p182
I1
sS'wit'
p183
I0
sS'apn'
p184
I1
sS'brh'
p185
I1
sS'sga'
p186
I0
sS'bre'
p187
I406
sS'sgb'
p188
I2
sS'bra'
p189
I2
sS'ape'
p190
I1
sS'aym'
p191
I6
sS'dng'
p192
I8
sS'chc'
p193
I0
sS'twf'
p194
I0
sS'che'
p195
I57
sS'chg'
p196
I0
sS'hbs'
p197
I45036
sS'dnn'
p198
I10
sS'chl'
p199
I0
sS'chm'
p200
I89
sS'dnk'
p201
I1
sS'cho'
p202
I3
sS'chp'
p203
I123
sS'chr'
p204
I3
sS'chs'
p205
I0
sS'chu'
p206
I7
sS'chv'
p207
I174
sS'usp'
p208
I1
sS'chy'
p209
I0
sS'chz'
p210
I0
sS'msb'
p211
I1
sS'msa'
p212
I5416
sS'jvn'
p213
I6
sS'kgs'
p214
I0
sS'nko'
p215
I1
sS'osp'
p216
I0
sS'naz'
p217
I0
sS'kgh'
p218
I11
sS'iii'
p219
I18
sS'xtm'
p220
I0
sS'jmd'
p221
I1
sS'cay'
p222
I2
sS'ibl'
p223
I1
sS'kla'
p224
I0
sS'ibo'
p225
I4
sS'dep'
p226
I0
sS'iba'
p227
I0
sS'kln'
p228
I0
sS'des'
p229
I0
sS'xho'
p230
I23
sS'deu'
p231
I292124
sS'cat'
p232
I18004
sS'cak'
p233
I1
sS'tnd'
p234
I1
sS'uli'
p235
I1
sS'del'
p236
I1
sS'kri'
p237
I1
sS'tnm'
p238
I1
sS'cab'
p239
I0
sS'caa'
p240
I1
sS'cag'
p241
I1
sS'erk'
p242
I1
sS'tat'
p243
I819
sS'tau'
p244
I0
sS'kyh'
p245
I0
sS'nde'
p246
I14
sS'kyf'
p247
I3
sS'cbk'
p248
I0
sS'taa'
p249
I0
sS'tab'
p250
I61
sS'spa'
p251
I228910
sS'tam'
p252
I1763
sS'kyq'
p253
I6
sS'tah'
p254
I7
sS'tan'
p255
I0
sS'gcc'
p256
I0
sS'enf'
p257
I0
sS'eng'
p258
I146294
sS'enh'
p259
I0
sS'nys'
p260
I0
sS'enm'
p261
I28
sS'csb'
p262
I3
sS'nyj'
p263
I0
sS'oym'
p264
I1
sS'gcr'
p265
I8
sS'sig'
p266
I3
sS'nyo'
p267
I1
sS'hop'
p268
I0
sS'dyu'
p269
I6
sS'nya'
p270
I18
sS'hoz'
p271
I1
sS'sin'
p272
I671
sS'afr'
p273
I776
sS'sil'
p274
I8
sS'bkd'
p275
I4
sS'lam'
p276
I0
sS'snd'
p277
I15
sS'mar'
p278
I878
sS'lah'
p279
I4
sS'bkb'
p280
I1
sS'bkc'
p281
I0
sS'lad'
p282
I15
sS'bkm'
p283
I19
sS'aom'
p284
I1
sS'snk'
p285
I1
sS'aoi'
p286
I1
sS'lac'
p287
I0
sS'krc'
p288
I103
sS'lat'
p289
I362
sS'lav'
p290
I8145
sS'mal'
p291
I1202
sS'man'
p292
I2
sS'egy'
p293
I0
sS'ghs'
p294
I1
sS'flm'
p295
I0
sS'gcf'
p296
I22
sS'lhu'
p297
I30
sS'zul'
p298
I23
sS'mql'
p299
I2
sS'xnn'
p300
I1
sS'mjy'
p301
I0
sS'tbl'
p302
I11
sS'itl'
p303
I0
sS'kbc'
p304
I1
sS'kbd'
p305
I86
sS'ita'
p306
I59830
sS'uvl'
p307
I1
sS'ttc'
p308
I0
sS'jnj'
p309
I1
sS'kbp'
p310
I10
sS'its'
p311
I1
sS'tsn'
p312
I17
sS'tso'
p313
I8
sS'djr'
p314
I1
sS'hem'
p315
I1
sS'byv'
p316
I2
sS'tsg'
p317
I2
sS'tsc'
p318
I0
sS'djc'
p319
I4
sS'tsz'
p320
I2
sS'hin'
p321
I3506
sS'pcm'
p322
I0
sS'dji'
p323
I1
sS'pcc'
p324
I3
sS'djk'
p325
I8
sS'djj'
p326
I9
sS'fin'
p327
I46271
sS'yka'
p328
I1
sS'eus'
p329
I3923
sS'bav'
p330
I6
sS'daf'
p331
I5
sS'dag'
p332
I0
sS'oku'
p333
I5
sS'ceb'
p334
I11
sS'dan'
p335
I64799
sS'nog'
p336
I33
sS'mxp'
p337
I0
sS'dak'
p338
I23
sS'oka'
p339
I0
sS'ces'
p340
I64442
sS'bji'
p341
I1
sS'dar'
p342
I68
sS'cjs'
p343
I0
sS'pjt'
p344
I10
sS'kfy'
p345
I0
sS'nor'
p346
I45923
sS'swa'
p347
I323
sS'ifu'
p348
I1
sS'ynn'
p349
I0
sS'evn'
p350
I8
sS'kpy'
p351
I7
sS'ify'
p352
I1
sS'ife'
p353
I45
sS'mzm'
p354
I1
sS'nfr'
p355
I10
sS'lbe'
p356
I65
sS'wsk'
p357
I1
sS'ifk'
p358
I4
sS'aht'
p359
I0
sS'mdm'
p360
I2
sS'mdf'
p361
I34
sS'mde'
p362
I6
sS'lao'
p363
I232
sS'mau'
p364
I0
sS'hlb'
p365
I0
sS'wgg'
p366
I0
sS'goh'
p367
I4
sS'blw'
p368
I5
sS'sna'
p369
I16
sS'sms'
p370
I2
sS'frm'
p371
I16
sS'smo'
p372
I141
sS'smn'
p373
I15
sS'smj'
p374
I42
sS'dsh'
p375
I3
sS'pan'
p376
I384
sS'got'
p377
I0
sS'hch'
p378
I1
sS'smd'
p379
I4
sS'bla'
p380
I4
sS'snl'
p381
I0
sS'sma'
p382
I30
sS'ajg'
p383
I7
sS'ixj'
p384
I1
sS'mmy'
p385
I2
sS'bwu'
p386
I4
sS'ast'
p387
I193
sS'lmp'
p388
I8
sS'mkd'
p389
I3901
sS'lms'
p390
I0
sS'lmw'
p391
I0
sS'quc'
p392
I0
sS'ntj'
p393
I3
sS'ntm'
p394
I9
sS'sbg'
p395
I0
sS'ori'
p396
I752
sS'bwi'
p397
I0
sS'aso'
p398
I1
sS'bal'
p399
I1
sS'sbl'
p400
I1
sS'pus'
p401
I285
sS'xuu'
p402
I0
sS'atd'
p403
I4
sS'atb'
p404
I3
sS'syr'
p405
I11
sS'ltz'
p406
I36
sS'yus'
p407
I0
sS'wls'
p408
I0
sS'atj'
p409
I3
sS'yut'
p410
I1
sS'ati'
p411
I1
sS'atv'
p412
I1
sS'ndo'
p413
I4
sS'att'
p414
I1
sS'mvc'
p415
I1
sS'yum'
p416
I0
sS'ats'
p417
I0
sS'wln'
p418
I29
sS'isl'
p419
I6514
sS'yua'
p420
I2
sS'yuc'
p421
I0
sS'xuo'
p422
I11
sS'arp'
p423
I0
sS'kfz'
p424
I12
sS'pir'
p425
I1
sS'one'
p426
I0
sS'nhu'
p427
I11
sS'mai'
p428
I7
sS'pgu'
p429
I1
sS'fmp'
p430
I3
sS'nhr'
p431
I8
sS'ded'
p432
I1
sS'onw'
p433
I0
sS'zap'
p434
I0
sS'yid'
p435
I89
sS'kok'
p436
I2
sS'kom'
p437
I26
sS'kon'
p438
I5
sS'rus'
p439
I82772
sS'arw'
p440
I1
sS'ukr'
p441
I4514
sS'kog'
p442
I1
sS'koy'
p443
I0
sS'toh'
p444
I0
sS'toi'
p445
I2
sS'ton'
p446
I85
sS'kos'
p447
I2
sS'las'
p448
I9
sS'tog'
p449
I1
sS'yiz'
p450
I224
sS'ncx'
p451
I0
sS'ncz'
p452
I0
sS'vag'
p453
I5
sS'hub'
p454
I1
sS'udu'
p455
I2
sS'ted'
p456
I7
sS'hun'
p457
I54989
sS'ncu'
p458
I6
sS'nci'
p459
I0
sS'hur'
p460
I1
sS'ude'
p461
I0
sS'oge'
p462
I1
sS'pqm'
p463
I0
sS'fil'
p464
I150
sS'cym'
p465
I2312
sS'udm'
p466
I37
sS'beh'
p467
I14
sS'kor'
p468
I22338
sS'ben'
p469
I1878
sS'bel'
p470
I1874
sS'bem'
p471
I1
sS'ktu'
p472
I1
sS'nzy'
p473
I1
sS'btg'
p474
I0
sS'nza'
p475
I1
sS'aar'
p476
I1
sS'dts'
p477
I0
sS'ybb'
p478
I4
sS'beq'
p479
I0
sS'bev'
p480
I0
sS'bet'
p481
I0
sS'aaz'
p482
I1
sS'ane'
p483
I0
sS'prg'
p484
I0
sS'sah'
p485
I201
sS'san'
p486
I58
sS'bho'
p487
I0
sS'sac'
p488
I0
sS'pro'
p489
I16
sS'ram'
p490
I0
sS'raj'
p491
I3
sS'acd'
p492
I6
sS'bhy'
p493
I3
sS'prt'
p494
I5
sS'anv'
p495
I10
sS'gia'
p496
I0
sS'rar'
p497
I78
sS'sar'
p498
I0
sS'any'
p499
I7
sS'car'
p500
I3
sS'asm'
p501
I526
sS'ark'
p502
I0
sS'epo'
p503
I542
sS'lil'
p504
I0
sS'lim'
p505
I1
sS'mic'
p506
I1
sS'xra'
p507
I0
sS'lik'
p508
I1
sS'lit'
p509
I15447
sS'efi'
p510
I2
sS'liv'
p511
I0
sS'arn'
p512
I1
sS'lis'
p513
I78
sS'miq'
p514
I1
sS'yuk'
p515
I0
sS'dgr'
p516
I4
sS'kac'
p517
I66
sS'kab'
p518
I9
sS'kaa'
p519
I568
sS'bst'
p520
I1
sS'kan'
p521
I700
sS'kam'
p522
I0
sS'bss'
p523
I5
sS'kas'
p524
I10
sS'kaq'
p525
I0
sS'iws'
p526
I1
sS'bsk'
p527
I0
sS'rut'
p528
I2
sS'kaz'
p529
I2454
sS'tyv'
p530
I164
sS'pcd'
p531
I10
sS'awa'
p532
I1
sS'urd'
p533
I1005
sS'doi'
p534
I1
sS'cjv'
p535
I1
sS'urb'
p536
I2
sS'doc'
p537
I5
sS'cko'
p538
I3
sS'tpi'
p539
I6
sS'jbj'
p540
I1
sS'tpw'
p541
I0
sS'ckt'
p542
I39
sS'ext'
p543
I1
sS'mri'
p544
I319
sS'abi'
p545
I6
sS'axk'
p546
I7
sS'dow'
p547
I2
sS'lpa'
p548
I1
sS'axm'
p549
I0
sS'pkp'
p550
I1
sS'kut'
p551
I0
sS'bul'
p552
I25742
sS'ojp'
p553
I0
sS'neb'
p554
I4
sS'uga'
p555
I0
sS'bum'
p556
I2
sS'tkw'
p557
I0
sS'tkr'
p558
I1
sS'nld'
p559
I111371
sS'mzw'
p560
I8
sS'dbq'
p561
I19
sS'oji'
p562
I25
sS'oci'
p563
I204
sS'och'
p564
I0
sS'ksw'
p565
I0
sS'bua'
p566
I47
sS'nga'
p567
I17
sS'psi'
p568
I3
sS'bfd'
p569
I6
sS'jav'
p570
I0
sS'ngk'
p571
I0
sS'jao'
p572
I2
sS'jam'
p573
I0
sS'udl'
p574
I2
sS'jai'
p575
I0
sS'yml'
p576
I1
sS'ksj'
p577
I1
sS'mga'
p578
I0
sS'tbz'
p579
I7
sS'hit'
p580
I0
sS'gez'
p581
I1
sS'ssw'
p582
I16
sS'kxc'
p583
I7
sS'mgo'
p584
I4
sS'tbt'
p585
I3
sS'tbw'
p586
I3
sS'xon'
p587
I8
sS'dyo'
p588
I7
sS'hid'
p589
I0
sS'dyi'
p590
I4
sS'aby'
p591
I1
sS'inh'
p592
I54
sS'ttt'
p593
I0
sS'hil'
p594
I1
sS'gen'
p595
I3
sS'kxv'
p596
I0
sS'shp'
p597
I1
sS'crs'
p598
I0
sS'bar'
p599
I2
sS'bas'
p600
I3
sS'gba'
p601
I14
sS'eme'
p602
I0
sS'agr'
p603
I1
sS'unp'
p604
I0
sS'bay'
p605
I2
sS'gbr'
p606
I1
sS'nep'
p607
I140
sS'cre'
p608
I66
sS'shh'
p609
I0
sS'crh'
p610
I20
sS'bam'
p611
I9
sS'cro'
p612
I1
sS'shn'
p613
I0
sS'rmr'
p614
I4
sS'ses'
p615
I0
sS'sep'
p616
I5
sS'arx'
p617
I0
sS'guc'
p618
I0
sS'nus'
p619
I0
sS'lns'
p620
I15
sS'aze'
p621
I1658
sS'ara'
p622
I12488
sS'see'
p623
I0
sS'arc'
p624
I3
sS'are'
p625
I0
sS'vmw'
p626
I1
sS'ari'
p627
I0
sS'sel'
p628
I0
sS'lnc'
p629
I1
sS'seh'
p630
I1
sS'gbb'
p631
I0
sS'muw'
p632
I0
sS'lus'
p633
I0
sS'dlg'
p634
I0
sS'muy'
p635
I9
sS'hnn'
p636
I1
sS'lua'
p637
I10
sS'lub'
p638
I2
sS'irk'
p639
I0
sS'mua'
p640
I0
sS'lug'
p641
I0
sS'bjt'
p642
I2
sS'lui'
p643
I0
sS'acr'
p644
I2
sS'wob'
p645
I3
sS'ken'
p646
I11
sS'oma'
p647
I0
sS'kek'
p648
I5
sS'iku'
p649
I304
sS'cuv'
p650
I0
sS'tur'
p651
I11874
sS'omn'
p652
I0
sS'kea'
p653
I1
sS'bak'
p654
I502
sS'fro'
p655
I20
sS'tuk'
p656
I741
sS'omw'
p657
I1
sS'tuv'
p658
I1
sS'tuo'
p659
I1
sS'wti'
p660
I2
sS'ker'
p661
I10
sS'kjb'
p662
I1
sS'cop'
p663
I2
sS'cos'
p664
I50
sS'cor'
p665
I8
sS'gwa'
p666
I0
sS'cot'
p667
I0
sS'ett'
p668
I0
sS'ilo'
p669
I1
sS'kjh'
p670
I15
sS'pdt'
p671
I16
sS'gwi'
p672
I1
sS'ilk'
p673
I1
sS'aho'
p674
I0
sS'mtg'
p675
I1
sS'vut'
p676
I3
sS'kjq'
p677
I0
sS'coe'
p678
I1
sS'ktb'
p679
I2
sS'meq'
p680
I0
sS'tli'
p681
I0
sS'coj'
p682
I0
sS'com'
p683
I0
sS'ncf'
p684
I1
sS'kwk'
p685
I0
sS'por'
p686
I74721
sS'kwn'
p687
I1
sS'pol'
p688
I76720
sS'ang'
p689
I8
sS'amh'
p690
I317
sS'tgk'
p691
I1062
sS'ady'
p692
I50
sS'wol'
p693
I16
sS'fra'
p694
I238463
sS'dum'
p695
I0
sS'tuz'
p696
I3
sS'dua'
p697
I1
sS'fri'
p698
I118
sS'swb'
p699
I0
sS'yaq'
p700
I0
sS'due'
p701
I3
sS'xav'
p702
I2
sS'tue'
p703
I0
sS'frs'
p704
I4
sS'frr'
p705
I4
sS'noo'
p706
I0
sS'frp'
p707
I3
sS'xal'
p708
I42
sS'khq'
p709
I0
sS'dje'
p710
I0
sS'dur'
p711
I1
sS'mez'
p712
I0
sS'yaa'
p713
I0
sS'duu'
p714
I1
sS'etr'
p715
I1
sS'mcm'
p716
I0
sS'otk'
p717
I0
sS'nrn'
p718
I0
sS'zna'
p719
I3
sS'pri'
p720
I2
sS'mcd'
p721
I0
sS'mcb'
p722
I1
sS'fij'
p723
I8
sS'hmn'
p724
I30
sS'yas'
p725
I2
sS'sxn'
p726
I1
sS'gag'
p727
I15
sS'mcu'
p728
I12
sS'bmy'
p729
I1
sS'hmb'
p730
I0
sS'mcp'
p731
I12
sS'eip'
p732
I0
sS'mla'
p733
I0
sS'fur'
p734
I0
sS'mlg'
p735
I204
sS'adj'
p736
I4
sS'slv'
p737
I18719
sS'piz'
p738
I0
sS'hdy'
p739
I4
sS'slm'
p740
I4
sS'sln'
p741
I0
sS'gna'
p742
I8
sS'slh'
p743
I0
sS'gng'
p744
I17
sS'gnd'
p745
I7
sS'slk'
p746
I19641
sS'sld'
p747
I15
sS'prq'
p748
I2
sS'ful'
p749
I9
sS'gnn'
p750
I2
sS'srd'
p751
I0
sS'mqb'
p752
I4
sS'ivb'
p753
I2
sS'jpn'
p754
I130893
sS'bno'
p755
I1
sS'wlm'
p756
I0
sS'sxw'
p757
I1
sS'non'
p758
I1
sS'fwa'
p759
I0
sS'vot'
p760
I5
sS'mya'
p761
I274
sS'ivv'
p762
I0
sS'bim'
p763
I9
sS'sjt'
p764
I0
sS'rif'
p765
I0
sS'ave'
p766
I0
sS'tzm'
p767
I11
sS'ava'
p768
I64
sS'daa'
p769
I17
sS'pap'
p770
I2
sS'cjk'
p771
I0
sS'ewo'
p772
I0
sS'cjo'
p773
I1
sS'paw'
p774
I0
sS'sef'
p775
I0
sS'tqo'
p776
I0
sS'ewe'
p777
I4
sS'ina'
p778
I3
sS'pad'
p779
I1
sS'pag'
p780
I0
sS'dhv'
p781
I0
sS'sat'
p782
I1
sS'pal'
p783
I0
sS'pam'
p784
I0
sS'fkv'
p785
I0
sS'pao'
p786
I0
sS'nij'
p787
I0
sS'syb'
p788
I5
sS'dga'
p789
I0
sS'nio'
p790
I0
sS'mzs'
p791
I0
sS'kir'
p792
I1528
sS'dgi'
p793
I6
sS'orv'
p794
I4
sS'kik'
p795
I0
sS'kij'
p796
I0
sS'kio'
p797
I0
sS'kin'
p798
I4
sS'dgz'
p799
I1
sS'kib'
p800
I0
sS'rwo'
p801
I1
sS'niv'
p802
I3
sS'niu'
p803
I67
sS'pau'
p804
I4
sS'jbt'
p805
I0
sS'knj'
p806
I1
sS'gsw'
p807
I116
sS'amx'
p808
I0
sS'pdc'
p809
I1
sS'kne'
p810
I22
sS'ofs'
p811
I0
sS'gsc'
p812
I5
sS'glv'
p813
I0
sS'wya'
p814
I0
sS'thd'
p815
I11
sS'lin'
p816
I20
sS'knp'
p817
I9
sS'xed'
p818
I5
sS'tiw'
p819
I6
sS'mfe'
p820
I9
sS'xeb'
p821
I0
sS'tcy'
p822
I0
sS'mfh'
p823
I1
sS'mfi'
p824
I1
sS'vec'
p825
I0
sS'kkj'
p826
I27
sS'mmu'
p827
I2
sS'tcs'
p828
I0
sS'gde'
p829
I14
sS'nou'
p830
I1
sS'mif'
p831
I26
sS'tcb'
p832
I0
sS'swg'
p833
I21
sS'tca'
p834
I2
sS'hai'
p835
I0
sS'gmh'
p836
I15
sS'ell'
p837
I27422
sS'gml'
p838
I0
sS'hag'
p839
I5
sS'txg'
p840
I0
sS'haz'
p841
I1
sS'ess'
p842
I0
sS'ska'
p843
I0
sS'bnc'
p844
I13
sS'cul'
p845
I1
sS'cuk'
p846
I0
sS'hau'
p847
I53
sS'haw'
p848
I10
sS'moz'
p849
I17
sS'psh'
p850
I0
sS'mox'
p851
I1
sS'amm'
p852
I1
sS'bik'
p853
I2
sS'mos'
p854
I3
sS'mor'
p855
I0
sS'tik'
p856
I19
sS'bib'
p857
I12
sS'mov'
p858
I1
sS'wci'
p859
I3
sS'moh'
p860
I0
sS'mon'
p861
I2423
sS'mol'
p862
I3720
sS'biv'
p863
I4
sS'opm'
p864
I1
sS'moa'
p865
I2
sS'poq'
p866
I0
sS'bis'
p867
I2
sS'moe'
p868
I0
sS'crg'
p869
I0
sS'xrb'
p870
I12
sS'wbp'
p871
I9
sS'mhg'
p872
I0
sS'gjn'
p873
I3
sS'bps'
p874
I11
sS'bpr'
p875
I1
sS'wbl'
p876
I1
sS'wbm'
p877
I28
sS'xsm'
p878
I37
sS'aee'
p879
I0
sS'kdh'
p880
I11
sS'kdd'
p881
I0
sS'lut'
p882
I0
sS'apm'
p883
I0
sS'olo'
p884
I3
sS'tvl'
p885
I1
sS'ijc'
p886
I0
sS'wwa'
p887
I22
sS'xsb'
p888
I1
sS'esu'
p889
I0
sS'est'
p890
I20605
sS'ykg'
p891
I1
sS'kmb'
p892
I2
sS'kma'
p893
I4
sS'jgo'
p894
I2
sS'kmh'
p895
I1
sS'kmw'
p896
I7
sS'peo'
p897
I0
sS'uma'
p898
I1
sS'ddn'
p899
I1
sS'tmh'
p900
I1
sS'fon'
p901
I8
sS'ifa'
p902
I4
sS'plw'
p903
I2
sS'run'
p904
I0
sS'cgc'
p905
I4
sS'rug'
p906
I7
sS'iai'
p907
I0
sS'tdd'
p908
I2
sS'hss'
p909
I0
sS'xua'
p910
I0
sS'chk'
p911
I1
sS'sag'
p912
I1
sS'zir'
p913
I1
sS'rup'
p914
I9
sS'kal'
p915
I327
sS'pli'
p916
I0
sS'bbj'
p917
I3
sS'obo'
p918
I4
sS'mhu'
p919
I0
sS'ylr'
p920
I0
sS'acf'
p921
I3
sS'dzg'
p922
I15
sS'sre'
p923
I0
sS'ach'
p924
I0
sS'srn'
p925
I13
sS'dzo'
p926
I0
sS'srm'
p927
I3
sS'srr'
p928
I4
sS'srs'
p929
I0
sS'yle'
p930
I1
sS'krl'
p931
I7
sS'sru'
p932
I0
sS'kaw'
p933
I0
sS'idd'
p934
I2
sS'mhq'
p935
I0
sS'nuy'
p936
I0
sS'xno'
p937
I0
sS'sjm'
p938
I10
sS'nsk'
p939
I0
sS'mbi'
p940
I3
sS'sog'
p941
I0
sS'nso'
p942
I10
sS'mbd'
p943
I10
sS'swe'
p944
I71688
sS'sok'
p945
I8
sS'kat'
p946
I2176
sS'som'
p947
I102
sS'mba'
p948
I1
sS'mbb'
p949
I1
sS'bbb'
p950
I1
sS'sor'
p951
I14
sS'bba'
p952
I4
sS'orm'
p953
I0
sS'mbt'
p954
I2
sS'nss'
p955
I0
sS'grc'
p956
I22
sS'mbs'
p957
I5
sS'lob'
p958
I1
sS'yam'
p959
I11
sS'yrk'
p960
I4
sS'log'
p961
I3
sS'her'
p962
I3
sS'yrb'
p963
I1
sS'yre'
p964
I2
sS'lol'
p965
I0
sS'lor'
p966
I1
sS'loq'
p967
I2
sS'way'
p968
I0
sS'vas'
p969
I1
sS'rcf'
p970
I16
sS'gil'
p971
I0
sS'rmu'
p972
I11
sS'war'
p973
I1
sS'wap'
p974
I3
sS'sid'
p975
I3
sS'wni'
p976
I1
sS'glh'
p977
I0
sS'buu'
p978
I3
sS'grn'
p979
I2
sS'sda'
p980
I0
sS'sba'
p981
I0
sS'ayt'
p982
I2
sS'nhv'
p983
I0
sS'wal'
p984
I1
sS'pwm'
p985
I1
sS'bug'
p986
I0
sS'mtp'
p987
I3
sS'tzb'
p988
I2
sS'coq'
p989
I0
sS'cim'
p990
I2
sS'zha'
p991
I101
sS'azz'
p992
I0
sS'azr'
p993
I1
sS'mta'
p994
I16
sS'tpm'
p995
I3
sS'zho'
p996
I62650
sS'pil'
p997
I2
sS'uig'
p998
I1488
sS'nnh'
p999
I15
sS'maw'
p1000
I7
sS'pia'
p1001
I0
sS'pib'
p1002
I1
sS'nna'
p1003
I0
sS'myv'
p1004
I32
sS'cbs'
p1005
I0
sS'msm'
p1006
I9
sS'ino'
p1007
I1
sS'mym'
p1008
I8
sS'khm'
p1009
I231
sS'cbt'
p1010
I1
sS'kho'
p1011
I0
sS'nnw'
p1012
I13
sS'kha'
p1013
I0
sS'khb'
p1014
I2
sS'pis'
p1015
I1
sS'piu'
p1016
I0
sS'tiy'
p1017
I2
sS'tiz'
p1018
I145
sS'kqy'
p1019
I6
sS'tlh'
p1020
I1
sS'tir'
p1021
I74
sS'nap'
p1022
I0
sS'naq'
p1023
I1
sS'nav'
p1024
I13
sS'naw'
p1025
I1
sS'kqe'
p1026
I10
sS'ota'
p1027
I1
sS'kqk'
p1028
I1
sS'scl'
p1029
I0
sS'nay'
p1030
I2
sS'yor'
p1031
I28
sS'tpr'
p1032
I0
sS'zun'
p1033
I0
sS'sot'
p1034
I9
sS'uby'
p1035
I0
sS'squ'
p1036
I0
sS'sjd'
p1037
I2
sS'sqi'
p1038
I6757
sS'gad'
p1039
I2
sS'dos'
p1040
I11
sS'gvn'
p1041
I1
sS'hat'
p1042
I7
sS'mgv'
p1043
I0
sS'bcw'
p1044
I7
sS'bci'
p1045
I0
sS'bcj'
p1046
I1
sS'oty'
p1047
I0
sS'hni'
p1048
I12
sS'bca'
p1049
I2
sS'bzj'
p1050
I0
sS'hns'
p1051
I2
sS'agx'
p1052
I1
sS'agt'
p1053
I9
sS'bcq'
p1054
I3
sS'agq'
p1055
I6
sS'mlt'
p1056
I86
ssS'wikipedia'
p1057
g2
((dp1058
S'roh'
p1059
I1
sS'sco'
p1060
I1
sS'scn'
p1061
I1
sS'bul'
p1062
I5
sS'ron'
p1063
I5
sS'jpn'
p1064
I191
sS'por'
p1065
I54
sS'ita'
p1066
I129
sS'ara'
p1067
I20
sS'pol'
p1068
I43
sS'sah'
p1069
I1
sS'nld'
p1070
I58
sS'tur'
p1071
I34
sS'spa'
p1072
I159
sS'glg'
p1073
I2
sS'fra'
p1074
I149
sS'est'
p1075
I6
sS'kom'
p1076
I1
sS'ell'
p1077
I2
sS'eng'
p1078
I2305
sS'swa'
p1079
I1
sS'vie'
p1080
I5
sS'swe'
p1081
I28
sS'ukr'
p1082
I11
sS'lit'
p1083
I2
sS'nap'
p1084
I1
sS'nor'
p1085
I26
sS'heb'
p1086
I19
sS'kor'
p1087
I25
sS'fin'
p1088
I56
sS'hun'
p1089
I21
sS'afr'
p1090
I2
sS'haw'
p1091
I1
sS'tha'
p1092
I9
sS'ceb'
p1093
I1
sS'fas'
p1094
I7
sS'dan'
p1095
I14
sS'kan'
p1096
I1
sS'kur'
p1097
I1
sS'sqi'
p1098
I1
sS'mkd'
p1099
I2
sS'ces'
p1100
I19
sS'sag'
p1101
I1
sS'hif'
p1102
I1
sS'kat'
p1103
I1
sS'lat'
p1104
I2
sS'rus'
p1105
I118
sS'lav'
p1106
I1
sS'fil'
p1107
I1
sS'hin'
p1108
I1
sS'bar'
p1109
I1
sS'ltz'
p1110
I1
sS'slv'
p1111
I11
sS'deu'
p1112
I433
sS'cat'
p1113
I7
sS'epo'
p1114
I3
sS'ben'
p1115
I2
sS'msa'
p1116
I19
sS'slk'
p1117
I11
sS'jbo'
p1118
I3
sS'sin'
p1119
I4
sS'hbs'
p1120
I9
sS'zho'
p1121
I51
stp1122
Rp1123
s.