(dp0
S'facebook'
p1
ccollections
Counter
p2
((dp3
S'zho'
p4
I7
sS'ron'
p5
I2
sS'jpn'
p6
I2140
sS'fas'
p7
I1
sS'tur'
p8
I31
sS'por'
p9
I117
sS'ita'
p10
I5
sS'ara'
p11
I114
sS'pol'
p12
I2
sS'ces'
p13
I2
sS'nld'
p14
I153
sS'rus'
p15
I44
sS'spa'
p16
I173
sS'fra'
p17
I12
sS'bel'
p18
I1
sS'ell'
p19
I12
sS'eng'
p20
I990
sS'swa'
p21
I1
sS'afr'
p22
I16
sS'swe'
p23
I2
sS'deu'
p24
I7
sS'cat'
p25
I3
sS'fil'
p26
I20
sS'heb'
p27
I1
sS'tha'
p28
I47
sS'kor'
p29
I473
sS'msa'
p30
I53
stp31
Rp32
sS'twitter'
p33
g2
((dp34
S'zho'
p35
I7
sS'ron'
p36
I2
sS'jpn'
p37
I2140
sS'fas'
p38
I1
sS'tur'
p39
I31
sS'por'
p40
I117
sS'ita'
p41
I5
sS'ara'
p42
I114
sS'pol'
p43
I2
sS'ces'
p44
I2
sS'nld'
p45
I153
sS'rus'
p46
I44
sS'spa'
p47
I173
sS'fra'
p48
I12
sS'bel'
p49
I1
sS'ell'
p50
I12
sS'eng'
p51
I990
sS'swa'
p52
I1
sS'afr'
p53
I16
sS'swe'
p54
I2
sS'deu'
p55
I7
sS'cat'
p56
I3
sS'fil'
p57
I20
sS'heb'
p58
I1
sS'tha'
p59
I47
sS'kor'
p60
I473
sS'msa'
p61
I53
stp62
Rp63
sS'books'
p64
ccollections
defaultdict
p65
(c__builtin__
int
p66
tp67
Rp68
S'roh'
p69
I284
sS'bvr'
p70
I3
sS'sco'
p71
I32
sS'scn'
p72
I2
sS'rom'
p73
I82
sS'ron'
p74
I18464
sS'osx'
p75
I0
sS'bvz'
p76
I1
sS'oss'
p77
I153
sS'mns'
p78
I1
sS'mlp'
p79
I1
sS'mnw'
p80
I0
sS'mnh'
p81
I2
sS'mni'
p82
I1
sS'nwb'
p83
I1
sS'rop'
p84
I7
sS'alt'
p85
I50
sS'mnc'
p86
I2
sS'mnf'
p87
I18
sS'alq'
p88
I4
sS'fod'
p89
I3
sS'mwp'
p90
I1
sS'jrb'
p91
I0
sS'vep'
p92
I5
sS'aji'
p93
I1
sS'wmt'
p94
I2
sS'zmz'
p95
I1
sS'auu'
p96
I1
sS'mwf'
p97
I3
sS'auv'
p98
I1
sS'ven'
p99
I5
sS'lkt'
p100
I1
sS'tkl'
p101
I102
sS'mwl'
p102
I1
sS'mpe'
p103
I1
sS'kca'
p104
I3
sS'mpc'
p105
I0
sS'fas'
p106
I11329
sS'lrl'
p107
I0
sS'fak'
p108
I0
sS'mpu'
p109
I0
sS'fan'
p110
I0
sS'fao'
p111
I415
sS'vls'
p112
I0
sS'faa'
p113
I1
sS'sme'
p114
I173
sS'tri'
p115
I1
sS'dih'
p116
I0
sS'hye'
p117
I2139
sS'gue'
p118
I1
sS'gud'
p119
I2
sS'guj'
p120
I524
sS'cme'
p121
I24
sS'tnr'
p122
I0
sS'eve'
p123
I15
sS'gul'
p124
I1
sS'gur'
p125
I15
sS'gup'
p126
I3
sS'guw'
p127
I0
sS'zdj'
p128
I0
sS'div'
p129
I7
sS'gux'
p130
I0
sS'pbi'
p131
I8
sS'flr'
p132
I11
sS'tel'
p133
I668
sS'tem'
p134
I0
sS'tha'
p135
I1227
sS'ibd'
p136
I1
sS'cni'
p137
I1
sS'nbw'
p138
I1
sS'osa'
p139
I0
sS'nbl'
p140
I3
sS'ibg'
p141
I2
sS'tet'
p142
I3
sS'nbf'
p143
I19
sS'tew'
p144
I0
sS'nen'
p145
I0
sS'nem'
p146
I0
sS'suc'
p147
I5
sS'sub'
p148
I1
sS'bdm'
p149
I3
sS'sun'
p150
I1
sS'sum'
p151
I0
sS'abk'
p152
I115
sS'kus'
p153
I1
sS'kur'
p154
I201
sS'kup'
p155
I1
sS'abq'
p156
I8
sS'kum'
p157
I65
sS'ain'
p158
I0
sS'nez'
p159
I0
sS'lle'
p160
I0
sS'suq'
p161
I7
sS'abx'
p162
I1
sS'new'
p163
I25
sS'bdy'
p164
I0
sS'kua'
p165
I2
sS'sux'
p166
I0
sS'kzr'
p167
I17
sS'med'
p168
I0
sS'ntr'
p169
I8
sS'lee'
p170
I9
sS'lef'
p171
I6
sS'kst'
p172
I1
sS'arg'
p173
I64
sS'ozm'
p174
I17
sS'lem'
p175
I2
sS'fun'
p176
I1
sS'heb'
p177
I10961
sS'let'
p178
I0
sS'ulc'
p179
I0
sS'lez'
p180
I64
sS'hke'
p181
I0
sS'box'
p182
I30
sS'ctu'
p183
I1
sS'ekm'
p184
I2
sS'gla'
p185
I227
sS'drs'
p186
I1
sS'akp'
p187
I1
sS'gld'
p188
I2
sS'gle'
p189
I167
sS'bov'
p190
I1
sS'glg'
p191
I2371
sS'akk'
p192
I0
sS'mmn'
p193
I3
sS'sjo'
p194
I1
sS'akl'
p195
I3
sS'akc'
p196
I1
sS'que'
p197
I25
sS'aka'
p198
I2
sS'bod'
p199
I344
sS'ake'
p200
I14
sS'ork'
p201
I1
sS'apz'
p202
I1
sS'wic'
p203
I0
sS'wib'
p204
I15
sS'jra'
p205
I0
sS'vie'
p206
I786
sS'apr'
p207
I1
sS'ipk'
p208
I2
sS'wim'
p209
I6
sS'apw'
p210
I0
sS'uzb'
p211
I2757
sS'mkw'
p212
I5
sS'wiu'
p213
I1
sS'wit'
p214
I0
sS'apn'
p215
I1
sS'brh'
p216
I1
sS'sga'
p217
I0
sS'bre'
p218
I406
sS'sgb'
p219
I2
sS'bra'
p220
I2
sS'ape'
p221
I1
sS'aym'
p222
I6
sS'dng'
p223
I8
sS'chc'
p224
I0
sS'twf'
p225
I0
sS'che'
p226
I57
sS'chg'
p227
I0
sS'hbs'
p228
I45036
sS'dnn'
p229
I10
sS'chl'
p230
I0
sS'chm'
p231
I89
sS'dnk'
p232
I1
sS'cho'
p233
I3
sS'chp'
p234
I123
sS'chr'
p235
I3
sS'chs'
p236
I0
sS'chu'
p237
I7
sS'chv'
p238
I174
sS'usp'
p239
I1
sS'chy'
p240
I0
sS'chz'
p241
I0
sS'msb'
p242
I1
sS'msa'
p243
I5416
sS'jvn'
p244
I6
sS'kgs'
p245
I0
sS'nko'
p246
I1
sS'osp'
p247
I0
sS'naz'
p248
I0
sS'kgh'
p249
I11
sS'iii'
p250
I18
sS'xtm'
p251
I0
sS'jmd'
p252
I1
sS'cay'
p253
I2
sS'ibl'
p254
I1
sS'kla'
p255
I0
sS'ibo'
p256
I4
sS'dep'
p257
I0
sS'iba'
p258
I0
sS'kln'
p259
I0
sS'des'
p260
I0
sS'xho'
p261
I23
sS'deu'
p262
I292124
sS'cat'
p263
I18004
sS'cak'
p264
I1
sS'tnd'
p265
I1
sS'uli'
p266
I1
sS'del'
p267
I1
sS'kri'
p268
I1
sS'tnm'
p269
I1
sS'cab'
p270
I0
sS'caa'
p271
I1
sS'cag'
p272
I1
sS'erk'
p273
I1
sS'tat'
p274
I819
sS'tau'
p275
I0
sS'kyh'
p276
I0
sS'nde'
p277
I14
sS'kyf'
p278
I3
sS'cbk'
p279
I0
sS'taa'
p280
I0
sS'tab'
p281
I61
sS'spa'
p282
I228910
sS'tam'
p283
I1763
sS'kyq'
p284
I6
sS'tah'
p285
I7
sS'tan'
p286
I0
sS'gcc'
p287
I0
sS'enf'
p288
I0
sS'eng'
p289
I146294
sS'enh'
p290
I0
sS'nys'
p291
I0
sS'enm'
p292
I28
sS'csb'
p293
I3
sS'nyj'
p294
I0
sS'oym'
p295
I1
sS'gcr'
p296
I8
sS'sig'
p297
I3
sS'nyo'
p298
I1
sS'hop'
p299
I0
sS'dyu'
p300
I6
sS'nya'
p301
I18
sS'hoz'
p302
I1
sS'sin'
p303
I671
sS'afr'
p304
I776
sS'sil'
p305
I8
sS'bkd'
p306
I4
sS'lam'
p307
I0
sS'snd'
p308
I15
sS'mar'
p309
I878
sS'lah'
p310
I4
sS'bkb'
p311
I1
sS'bkc'
p312
I0
sS'lad'
p313
I15
sS'bkm'
p314
I19
sS'aom'
p315
I1
sS'snk'
p316
I1
sS'aoi'
p317
I1
sS'lac'
p318
I0
sS'krc'
p319
I103
sS'lat'
p320
I362
sS'lav'
p321
I8145
sS'mal'
p322
I1202
sS'man'
p323
I2
sS'egy'
p324
I0
sS'ghs'
p325
I1
sS'flm'
p326
I0
sS'gcf'
p327
I22
sS'lhu'
p328
I30
sS'zul'
p329
I23
sS'mql'
p330
I2
sS'xnn'
p331
I1
sS'mjy'
p332
I0
sS'tbl'
p333
I11
sS'itl'
p334
I0
sS'kbc'
p335
I1
sS'kbd'
p336
I86
sS'ita'
p337
I59830
sS'uvl'
p338
I1
sS'ttc'
p339
I0
sS'jnj'
p340
I1
sS'kbp'
p341
I10
sS'its'
p342
I1
sS'tsn'
p343
I17
sS'tso'
p344
I8
sS'djr'
p345
I1
sS'hem'
p346
I1
sS'byv'
p347
I2
sS'tsg'
p348
I2
sS'tsc'
p349
I0
sS'djc'
p350
I4
sS'tsz'
p351
I2
sS'hin'
p352
I3506
sS'pcm'
p353
I0
sS'dji'
p354
I1
sS'pcc'
p355
I3
sS'djk'
p356
I8
sS'djj'
p357
I9
sS'fin'
p358
I46271
sS'yka'
p359
I1
sS'eus'
p360
I3923
sS'bav'
p361
I6
sS'daf'
p362
I5
sS'dag'
p363
I0
sS'oku'
p364
I5
sS'ceb'
p365
I11
sS'dan'
p366
I64799
sS'nog'
p367
I33
sS'mxp'
p368
I0
sS'dak'
p369
I23
sS'oka'
p370
I0
sS'ces'
p371
I64442
sS'bji'
p372
I1
sS'dar'
p373
I68
sS'cjs'
p374
I0
sS'pjt'
p375
I10
sS'kfy'
p376
I0
sS'nor'
p377
I45923
sS'swa'
p378
I323
sS'ifu'
p379
I1
sS'ynn'
p380
I0
sS'evn'
p381
I8
sS'kpy'
p382
I7
sS'ify'
p383
I1
sS'ife'
p384
I45
sS'mzm'
p385
I1
sS'nfr'
p386
I10
sS'lbe'
p387
I65
sS'wsk'
p388
I1
sS'ifk'
p389
I4
sS'aht'
p390
I0
sS'mdm'
p391
I2
sS'mdf'
p392
I34
sS'mde'
p393
I6
sS'lao'
p394
I232
sS'mau'
p395
I0
sS'hlb'
p396
I0
sS'wgg'
p397
I0
sS'goh'
p398
I4
sS'blw'
p399
I5
sS'sna'
p400
I16
sS'sms'
p401
I2
sS'frm'
p402
I16
sS'smo'
p403
I141
sS'smn'
p404
I15
sS'smj'
p405
I42
sS'dsh'
p406
I3
sS'pan'
p407
I384
sS'got'
p408
I0
sS'hch'
p409
I1
sS'smd'
p410
I4
sS'bla'
p411
I4
sS'snl'
p412
I0
sS'sma'
p413
I30
sS'ajg'
p414
I7
sS'ixj'
p415
I1
sS'mmy'
p416
I2
sS'bwu'
p417
I4
sS'ast'
p418
I193
sS'lmp'
p419
I8
sS'mkd'
p420
I3901
sS'lms'
p421
I0
sS'lmw'
p422
I0
sS'quc'
p423
I0
sS'ntj'
p424
I3
sS'ntm'
p425
I9
sS'sbg'
p426
I0
sS'ori'
p427
I752
sS'bwi'
p428
I0
sS'aso'
p429
I1
sS'bal'
p430
I1
sS'sbl'
p431
I1
sS'pus'
p432
I285
sS'xuu'
p433
I0
sS'atd'
p434
I4
sS'atb'
p435
I3
sS'syr'
p436
I11
sS'ltz'
p437
I36
sS'yus'
p438
I0
sS'wls'
p439
I0
sS'atj'
p440
I3
sS'yut'
p441
I1
sS'ati'
p442
I1
sS'atv'
p443
I1
sS'ndo'
p444
I4
sS'att'
p445
I1
sS'mvc'
p446
I1
sS'yum'
p447
I0
sS'ats'
p448
I0
sS'wln'
p449
I29
sS'isl'
p450
I6514
sS'yua'
p451
I2
sS'yuc'
p452
I0
sS'xuo'
p453
I11
sS'arp'
p454
I0
sS'kfz'
p455
I12
sS'pir'
p456
I1
sS'one'
p457
I0
sS'nhu'
p458
I11
sS'mai'
p459
I7
sS'pgu'
p460
I1
sS'fmp'
p461
I3
sS'nhr'
p462
I8
sS'ded'
p463
I1
sS'onw'
p464
I0
sS'zap'
p465
I0
sS'yid'
p466
I89
sS'kok'
p467
I2
sS'kom'
p468
I26
sS'kon'
p469
I5
sS'rus'
p470
I82772
sS'arw'
p471
I1
sS'ukr'
p472
I4514
sS'kog'
p473
I1
sS'koy'
p474
I0
sS'toh'
p475
I0
sS'toi'
p476
I2
sS'ton'
p477
I85
sS'kos'
p478
I2
sS'las'
p479
I9
sS'tog'
p480
I1
sS'yiz'
p481
I224
sS'ncx'
p482
I0
sS'ncz'
p483
I0
sS'vag'
p484
I5
sS'hub'
p485
I1
sS'udu'
p486
I2
sS'ted'
p487
I7
sS'hun'
p488
I54989
sS'ncu'
p489
I6
sS'nci'
p490
I0
sS'hur'
p491
I1
sS'ude'
p492
I0
sS'oge'
p493
I1
sS'pqm'
p494
I0
sS'fil'
p495
I150
sS'cym'
p496
I2312
sS'udm'
p497
I37
sS'beh'
p498
I14
sS'kor'
p499
I22338
sS'ben'
p500
I1878
sS'bel'
p501
I1874
sS'bem'
p502
I1
sS'ktu'
p503
I1
sS'nzy'
p504
I1
sS'btg'
p505
I0
sS'nza'
p506
I1
sS'aar'
p507
I1
sS'dts'
p508
I0
sS'ybb'
p509
I4
sS'beq'
p510
I0
sS'bev'
p511
I0
sS'bet'
p512
I0
sS'aaz'
p513
I1
sS'ane'
p514
I0
sS'prg'
p515
I0
sS'sah'
p516
I201
sS'san'
p517
I58
sS'bho'
p518
I0
sS'sac'
p519
I0
sS'pro'
p520
I16
sS'ram'
p521
I0
sS'raj'
p522
I3
sS'acd'
p523
I6
sS'bhy'
p524
I3
sS'prt'
p525
I5
sS'anv'
p526
I10
sS'gia'
p527
I0
sS'rar'
p528
I78
sS'sar'
p529
I0
sS'any'
p530
I7
sS'car'
p531
I3
sS'asm'
p532
I526
sS'ark'
p533
I0
sS'epo'
p534
I542
sS'lil'
p535
I0
sS'lim'
p536
I1
sS'mic'
p537
I1
sS'xra'
p538
I0
sS'lik'
p539
I1
sS'lit'
p540
I15447
sS'efi'
p541
I2
sS'liv'
p542
I0
sS'arn'
p543
I1
sS'lis'
p544
I78
sS'miq'
p545
I1
sS'yuk'
p546
I0
sS'dgr'
p547
I4
sS'kac'
p548
I66
sS'kab'
p549
I9
sS'kaa'
p550
I568
sS'bst'
p551
I1
sS'kan'
p552
I700
sS'kam'
p553
I0
sS'bss'
p554
I5
sS'kas'
p555
I10
sS'kaq'
p556
I0
sS'iws'
p557
I1
sS'bsk'
p558
I0
sS'rut'
p559
I2
sS'kaz'
p560
I2454
sS'tyv'
p561
I164
sS'pcd'
p562
I10
sS'awa'
p563
I1
sS'urd'
p564
I1005
sS'doi'
p565
I1
sS'cjv'
p566
I1
sS'urb'
p567
I2
sS'doc'
p568
I5
sS'cko'
p569
I3
sS'tpi'
p570
I6
sS'jbj'
p571
I1
sS'tpw'
p572
I0
sS'ckt'
p573
I39
sS'ext'
p574
I1
sS'mri'
p575
I319
sS'abi'
p576
I6
sS'axk'
p577
I7
sS'dow'
p578
I2
sS'lpa'
p579
I1
sS'axm'
p580
I0
sS'pkp'
p581
I1
sS'kut'
p582
I0
sS'bul'
p583
I25742
sS'ojp'
p584
I0
sS'neb'
p585
I4
sS'uga'
p586
I0
sS'bum'
p587
I2
sS'tkw'
p588
I0
sS'tkr'
p589
I1
sS'nld'
p590
I111371
sS'mzw'
p591
I8
sS'dbq'
p592
I19
sS'oji'
p593
I25
sS'oci'
p594
I204
sS'och'
p595
I0
sS'ksw'
p596
I0
sS'bua'
p597
I47
sS'nga'
p598
I17
sS'psi'
p599
I3
sS'bfd'
p600
I6
sS'jav'
p601
I0
sS'ngk'
p602
I0
sS'jao'
p603
I2
sS'jam'
p604
I0
sS'udl'
p605
I2
sS'jai'
p606
I0
sS'yml'
p607
I1
sS'ksj'
p608
I1
sS'mga'
p609
I0
sS'tbz'
p610
I7
sS'hit'
p611
I0
sS'gez'
p612
I1
sS'ssw'
p613
I16
sS'kxc'
p614
I7
sS'mgo'
p615
I4
sS'tbt'
p616
I3
sS'tbw'
p617
I3
sS'xon'
p618
I8
sS'dyo'
p619
I7
sS'hid'
p620
I0
sS'dyi'
p621
I4
sS'aby'
p622
I1
sS'inh'
p623
I54
sS'ttt'
p624
I0
sS'hil'
p625
I1
sS'gen'
p626
I3
sS'kxv'
p627
I0
sS'shp'
p628
I1
sS'crs'
p629
I0
sS'bar'
p630
I2
sS'bas'
p631
I3
sS'gba'
p632
I14
sS'eme'
p633
I0
sS'agr'
p634
I1
sS'unp'
p635
I0
sS'bay'
p636
I2
sS'gbr'
p637
I1
sS'nep'
p638
I140
sS'cre'
p639
I66
sS'shh'
p640
I0
sS'crh'
p641
I20
sS'bam'
p642
I9
sS'cro'
p643
I1
sS'shn'
p644
I0
sS'rmr'
p645
I4
sS'ses'
p646
I0
sS'sep'
p647
I5
sS'arx'
p648
I0
sS'guc'
p649
I0
sS'nus'
p650
I0
sS'lns'
p651
I15
sS'aze'
p652
I1658
sS'ara'
p653
I12488
sS'see'
p654
I0
sS'arc'
p655
I3
sS'are'
p656
I0
sS'vmw'
p657
I1
sS'ari'
p658
I0
sS'sel'
p659
I0
sS'lnc'
p660
I1
sS'seh'
p661
I1
sS'gbb'
p662
I0
sS'muw'
p663
I0
sS'lus'
p664
I0
sS'dlg'
p665
I0
sS'muy'
p666
I9
sS'hnn'
p667
I1
sS'lua'
p668
I10
sS'lub'
p669
I2
sS'irk'
p670
I0
sS'mua'
p671
I0
sS'lug'
p672
I0
sS'bjt'
p673
I2
sS'lui'
p674
I0
sS'acr'
p675
I2
sS'wob'
p676
I3
sS'ken'
p677
I11
sS'oma'
p678
I0
sS'kek'
p679
I5
sS'iku'
p680
I304
sS'cuv'
p681
I0
sS'tur'
p682
I11874
sS'omn'
p683
I0
sS'kea'
p684
I1
sS'bak'
p685
I502
sS'fro'
p686
I20
sS'tuk'
p687
I741
sS'omw'
p688
I1
sS'tuv'
p689
I1
sS'tuo'
p690
I1
sS'wti'
p691
I2
sS'ker'
p692
I10
sS'kjb'
p693
I1
sS'cop'
p694
I2
sS'cos'
p695
I50
sS'cor'
p696
I8
sS'gwa'
p697
I0
sS'cot'
p698
I0
sS'ett'
p699
I0
sS'ilo'
p700
I1
sS'kjh'
p701
I15
sS'pdt'
p702
I16
sS'gwi'
p703
I1
sS'ilk'
p704
I1
sS'aho'
p705
I0
sS'mtg'
p706
I1
sS'vut'
p707
I3
sS'kjq'
p708
I0
sS'coe'
p709
I1
sS'ktb'
p710
I2
sS'meq'
p711
I0
sS'tli'
p712
I0
sS'coj'
p713
I0
sS'com'
p714
I0
sS'ncf'
p715
I1
sS'kwk'
p716
I0
sS'por'
p717
I74721
sS'kwn'
p718
I1
sS'pol'
p719
I76720
sS'ang'
p720
I8
sS'amh'
p721
I317
sS'tgk'
p722
I1062
sS'ady'
p723
I50
sS'wol'
p724
I16
sS'fra'
p725
I238463
sS'dum'
p726
I0
sS'tuz'
p727
I3
sS'dua'
p728
I1
sS'fri'
p729
I118
sS'swb'
p730
I0
sS'yaq'
p731
I0
sS'due'
p732
I3
sS'xav'
p733
I2
sS'tue'
p734
I0
sS'frs'
p735
I4
sS'frr'
p736
I4
sS'noo'
p737
I0
sS'frp'
p738
I3
sS'xal'
p739
I42
sS'khq'
p740
I0
sS'dje'
p741
I0
sS'dur'
p742
I1
sS'mez'
p743
I0
sS'yaa'
p744
I0
sS'duu'
p745
I1
sS'etr'
p746
I1
sS'mcm'
p747
I0
sS'otk'
p748
I0
sS'nrn'
p749
I0
sS'zna'
p750
I3
sS'pri'
p751
I2
sS'mcd'
p752
I0
sS'mcb'
p753
I1
sS'fij'
p754
I8
sS'hmn'
p755
I30
sS'yas'
p756
I2
sS'sxn'
p757
I1
sS'gag'
p758
I15
sS'mcu'
p759
I12
sS'bmy'
p760
I1
sS'hmb'
p761
I0
sS'mcp'
p762
I12
sS'eip'
p763
I0
sS'mla'
p764
I0
sS'fur'
p765
I0
sS'mlg'
p766
I204
sS'adj'
p767
I4
sS'slv'
p768
I18719
sS'piz'
p769
I0
sS'hdy'
p770
I4
sS'slm'
p771
I4
sS'sln'
p772
I0
sS'gna'
p773
I8
sS'slh'
p774
I0
sS'gng'
p775
I17
sS'gnd'
p776
I7
sS'slk'
p777
I19641
sS'sld'
p778
I15
sS'prq'
p779
I2
sS'ful'
p780
I9
sS'gnn'
p781
I2
sS'srd'
p782
I0
sS'mqb'
p783
I4
sS'ivb'
p784
I2
sS'jpn'
p785
I130893
sS'bno'
p786
I1
sS'wlm'
p787
I0
sS'sxw'
p788
I1
sS'non'
p789
I1
sS'fwa'
p790
I0
sS'vot'
p791
I5
sS'mya'
p792
I274
sS'ivv'
p793
I0
sS'bim'
p794
I9
sS'sjt'
p795
I0
sS'rif'
p796
I0
sS'ave'
p797
I0
sS'tzm'
p798
I11
sS'ava'
p799
I64
sS'daa'
p800
I17
sS'pap'
p801
I2
sS'cjk'
p802
I0
sS'ewo'
p803
I0
sS'cjo'
p804
I1
sS'paw'
p805
I0
sS'sef'
p806
I0
sS'tqo'
p807
I0
sS'ewe'
p808
I4
sS'ina'
p809
I3
sS'pad'
p810
I1
sS'pag'
p811
I0
sS'dhv'
p812
I0
sS'sat'
p813
I1
sS'pal'
p814
I0
sS'pam'
p815
I0
sS'fkv'
p816
I0
sS'pao'
p817
I0
sS'nij'
p818
I0
sS'syb'
p819
I5
sS'dga'
p820
I0
sS'nio'
p821
I0
sS'mzs'
p822
I0
sS'kir'
p823
I1528
sS'dgi'
p824
I6
sS'orv'
p825
I4
sS'kik'
p826
I0
sS'kij'
p827
I0
sS'kio'
p828
I0
sS'kin'
p829
I4
sS'dgz'
p830
I1
sS'kib'
p831
I0
sS'rwo'
p832
I1
sS'niv'
p833
I3
sS'niu'
p834
I67
sS'pau'
p835
I4
sS'jbt'
p836
I0
sS'knj'
p837
I1
sS'gsw'
p838
I116
sS'amx'
p839
I0
sS'pdc'
p840
I1
sS'kne'
p841
I22
sS'ofs'
p842
I0
sS'gsc'
p843
I5
sS'glv'
p844
I0
sS'wya'
p845
I0
sS'thd'
p846
I11
sS'lin'
p847
I20
sS'knp'
p848
I9
sS'xed'
p849
I5
sS'tiw'
p850
I6
sS'mfe'
p851
I9
sS'xeb'
p852
I0
sS'tcy'
p853
I0
sS'mfh'
p854
I1
sS'mfi'
p855
I1
sS'vec'
p856
I0
sS'kkj'
p857
I27
sS'mmu'
p858
I2
sS'tcs'
p859
I0
sS'gde'
p860
I14
sS'nou'
p861
I1
sS'mif'
p862
I26
sS'tcb'
p863
I0
sS'swg'
p864
I21
sS'tca'
p865
I2
sS'hai'
p866
I0
sS'gmh'
p867
I15
sS'ell'
p868
I27422
sS'gml'
p869
I0
sS'hag'
p870
I5
sS'txg'
p871
I0
sS'haz'
p872
I1
sS'ess'
p873
I0
sS'ska'
p874
I0
sS'bnc'
p875
I13
sS'cul'
p876
I1
sS'cuk'
p877
I0
sS'hau'
p878
I53
sS'haw'
p879
I10
sS'moz'
p880
I17
sS'psh'
p881
I0
sS'mox'
p882
I1
sS'amm'
p883
I1
sS'bik'
p884
I2
sS'mos'
p885
I3
sS'mor'
p886
I0
sS'tik'
p887
I19
sS'bib'
p888
I12
sS'mov'
p889
I1
sS'wci'
p890
I3
sS'moh'
p891
I0
sS'mon'
p892
I2423
sS'mol'
p893
I3720
sS'biv'
p894
I4
sS'opm'
p895
I1
sS'moa'
p896
I2
sS'poq'
p897
I0
sS'bis'
p898
I2
sS'moe'
p899
I0
sS'crg'
p900
I0
sS'xrb'
p901
I12
sS'wbp'
p902
I9
sS'mhg'
p903
I0
sS'gjn'
p904
I3
sS'bps'
p905
I11
sS'bpr'
p906
I1
sS'wbl'
p907
I1
sS'wbm'
p908
I28
sS'xsm'
p909
I37
sS'aee'
p910
I0
sS'kdh'
p911
I11
sS'kdd'
p912
I0
sS'lut'
p913
I0
sS'apm'
p914
I0
sS'olo'
p915
I3
sS'tvl'
p916
I1
sS'ijc'
p917
I0
sS'wwa'
p918
I22
sS'xsb'
p919
I1
sS'esu'
p920
I0
sS'est'
p921
I20605
sS'ykg'
p922
I1
sS'kmb'
p923
I2
sS'kma'
p924
I4
sS'jgo'
p925
I2
sS'kmh'
p926
I1
sS'kmw'
p927
I7
sS'peo'
p928
I0
sS'uma'
p929
I1
sS'ddn'
p930
I1
sS'tmh'
p931
I1
sS'fon'
p932
I8
sS'ifa'
p933
I4
sS'plw'
p934
I2
sS'run'
p935
I0
sS'cgc'
p936
I4
sS'rug'
p937
I7
sS'iai'
p938
I0
sS'tdd'
p939
I2
sS'hss'
p940
I0
sS'xua'
p941
I0
sS'chk'
p942
I1
sS'sag'
p943
I1
sS'zir'
p944
I1
sS'rup'
p945
I9
sS'kal'
p946
I327
sS'pli'
p947
I0
sS'bbj'
p948
I3
sS'obo'
p949
I4
sS'mhu'
p950
I0
sS'ylr'
p951
I0
sS'acf'
p952
I3
sS'dzg'
p953
I15
sS'sre'
p954
I0
sS'ach'
p955
I0
sS'srn'
p956
I13
sS'dzo'
p957
I0
sS'srm'
p958
I3
sS'srr'
p959
I4
sS'srs'
p960
I0
sS'yle'
p961
I1
sS'krl'
p962
I7
sS'sru'
p963
I0
sS'kaw'
p964
I0
sS'idd'
p965
I2
sS'mhq'
p966
I0
sS'nuy'
p967
I0
sS'xno'
p968
I0
sS'sjm'
p969
I10
sS'nsk'
p970
I0
sS'mbi'
p971
I3
sS'sog'
p972
I0
sS'nso'
p973
I10
sS'mbd'
p974
I10
sS'swe'
p975
I71688
sS'sok'
p976
I8
sS'kat'
p977
I2176
sS'som'
p978
I102
sS'mba'
p979
I1
sS'mbb'
p980
I1
sS'bbb'
p981
I1
sS'sor'
p982
I14
sS'bba'
p983
I4
sS'orm'
p984
I0
sS'mbt'
p985
I2
sS'nss'
p986
I0
sS'grc'
p987
I22
sS'mbs'
p988
I5
sS'lob'
p989
I1
sS'yam'
p990
I11
sS'yrk'
p991
I4
sS'log'
p992
I3
sS'her'
p993
I3
sS'yrb'
p994
I1
sS'yre'
p995
I2
sS'lol'
p996
I0
sS'lor'
p997
I1
sS'loq'
p998
I2
sS'way'
p999
I0
sS'vas'
p1000
I1
sS'rcf'
p1001
I16
sS'gil'
p1002
I0
sS'rmu'
p1003
I11
sS'war'
p1004
I1
sS'wap'
p1005
I3
sS'sid'
p1006
I3
sS'wni'
p1007
I1
sS'glh'
p1008
I0
sS'buu'
p1009
I3
sS'grn'
p1010
I2
sS'sda'
p1011
I0
sS'sba'
p1012
I0
sS'ayt'
p1013
I2
sS'nhv'
p1014
I0
sS'wal'
p1015
I1
sS'pwm'
p1016
I1
sS'bug'
p1017
I0
sS'mtp'
p1018
I3
sS'tzb'
p1019
I2
sS'coq'
p1020
I0
sS'cim'
p1021
I2
sS'zha'
p1022
I101
sS'azz'
p1023
I0
sS'azr'
p1024
I1
sS'mta'
p1025
I16
sS'tpm'
p1026
I3
sS'zho'
p1027
I62650
sS'pil'
p1028
I2
sS'uig'
p1029
I1488
sS'nnh'
p1030
I15
sS'maw'
p1031
I7
sS'pia'
p1032
I0
sS'pib'
p1033
I1
sS'nna'
p1034
I0
sS'myv'
p1035
I32
sS'cbs'
p1036
I0
sS'msm'
p1037
I9
sS'ino'
p1038
I1
sS'mym'
p1039
I8
sS'khm'
p1040
I231
sS'cbt'
p1041
I1
sS'kho'
p1042
I0
sS'nnw'
p1043
I13
sS'kha'
p1044
I0
sS'khb'
p1045
I2
sS'pis'
p1046
I1
sS'piu'
p1047
I0
sS'tiy'
p1048
I2
sS'tiz'
p1049
I145
sS'kqy'
p1050
I6
sS'tlh'
p1051
I1
sS'tir'
p1052
I74
sS'nap'
p1053
I0
sS'naq'
p1054
I1
sS'nav'
p1055
I13
sS'naw'
p1056
I1
sS'kqe'
p1057
I10
sS'ota'
p1058
I1
sS'kqk'
p1059
I1
sS'scl'
p1060
I0
sS'nay'
p1061
I2
sS'yor'
p1062
I28
sS'tpr'
p1063
I0
sS'zun'
p1064
I0
sS'sot'
p1065
I9
sS'uby'
p1066
I0
sS'squ'
p1067
I0
sS'sjd'
p1068
I2
sS'sqi'
p1069
I6757
sS'gad'
p1070
I2
sS'dos'
p1071
I11
sS'gvn'
p1072
I1
sS'hat'
p1073
I7
sS'mgv'
p1074
I0
sS'bcw'
p1075
I7
sS'bci'
p1076
I0
sS'bcj'
p1077
I1
sS'oty'
p1078
I0
sS'hni'
p1079
I12
sS'bca'
p1080
I2
sS'bzj'
p1081
I0
sS'hns'
p1082
I2
sS'agx'
p1083
I1
sS'agt'
p1084
I9
sS'bcq'
p1085
I3
sS'agq'
p1086
I6
sS'mlt'
p1087
I86
ssS'wikipedia'
p1088
g2
((dp1089
S'roh'
p1090
I1
sS'sco'
p1091
I1
sS'scn'
p1092
I1
sS'bul'
p1093
I5
sS'ron'
p1094
I5
sS'jpn'
p1095
I191
sS'por'
p1096
I54
sS'ita'
p1097
I129
sS'ara'
p1098
I20
sS'pol'
p1099
I43
sS'sah'
p1100
I1
sS'nld'
p1101
I58
sS'tur'
p1102
I34
sS'spa'
p1103
I159
sS'glg'
p1104
I2
sS'fra'
p1105
I149
sS'est'
p1106
I6
sS'kom'
p1107
I1
sS'ell'
p1108
I2
sS'eng'
p1109
I2305
sS'swa'
p1110
I1
sS'vie'
p1111
I5
sS'swe'
p1112
I28
sS'ukr'
p1113
I11
sS'lit'
p1114
I2
sS'nap'
p1115
I1
sS'nor'
p1116
I26
sS'heb'
p1117
I19
sS'kor'
p1118
I25
sS'fin'
p1119
I56
sS'hun'
p1120
I21
sS'afr'
p1121
I2
sS'haw'
p1122
I1
sS'tha'
p1123
I9
sS'ceb'
p1124
I1
sS'fas'
p1125
I7
sS'dan'
p1126
I14
sS'kan'
p1127
I1
sS'kur'
p1128
I1
sS'sqi'
p1129
I1
sS'mkd'
p1130
I2
sS'ces'
p1131
I19
sS'sag'
p1132
I1
sS'hif'
p1133
I1
sS'kat'
p1134
I1
sS'lat'
p1135
I2
sS'rus'
p1136
I118
sS'lav'
p1137
I1
sS'fil'
p1138
I1
sS'hin'
p1139
I1
sS'bar'
p1140
I1
sS'ltz'
p1141
I1
sS'slv'
p1142
I11
sS'deu'
p1143
I433
sS'cat'
p1144
I7
sS'epo'
p1145
I3
sS'ben'
p1146
I2
sS'msa'
p1147
I19
sS'slk'
p1148
I11
sS'jbo'
p1149
I3
sS'sin'
p1150
I4
sS'hbs'
p1151
I9
sS'zho'
p1152
I51
stp1153
Rp1154
s.